target datalayout = "e-m:e-p270:32:32-p271:32:32-p272:64:64-i64:64-i128:128-f80:128-n8:16:32:64-S128"
target triple = "x86_64-pc-linux-gnu"

%struct.ewah_bitmap = type { ptr, i64, i64, i64, ptr }

; Function Attrs: inlinehint nounwind uwtable
define internal i64 @rlw_get_literal_words(ptr noundef %0) #2 {
  %2 = alloca ptr, align 8
  store ptr %0, ptr %2, align 8, !tbaa !19
  %3 = load ptr, ptr %2, align 8, !tbaa !19
  %4 = load i64, ptr %3, align 8, !tbaa !11
  %5 = lshr i64 %4, 33
  ret i64 %5
}

; Function Attrs: inlinehint nounwind uwtable
define internal i64 @rlw_get_running_len(ptr noundef %0) #2 {
  %2 = alloca ptr, align 8
  store ptr %0, ptr %2, align 8, !tbaa !19
  %3 = load ptr, ptr %2, align 8, !tbaa !19
  %4 = load i64, ptr %3, align 8, !tbaa !11
  %5 = lshr i64 %4, 1
  %6 = and i64 %5, 4294967295
  ret i64 %6
}

; Function Attrs: inlinehint nounwind uwtable
define internal i32 @rlw_get_run_bit(ptr noundef %0) #2 {
  %2 = alloca ptr, align 8
  store ptr %0, ptr %2, align 8, !tbaa !19
  %3 = load ptr, ptr %2, align 8, !tbaa !19
  %4 = load i64, ptr %3, align 8, !tbaa !11
  %5 = and i64 %4, 1
  %6 = trunc i64 %5 to i32
  ret i32 %6
}

; Function Attrs: nounwind uwtable
define dso_local void @ewah_each_bit(ptr noundef %0, ptr noundef %1, ptr noundef %2) #0 {
  %4 = alloca ptr, align 8
  %5 = alloca ptr, align 8
  %6 = alloca ptr, align 8
  %7 = alloca i64, align 8
  %8 = alloca i64, align 8
  %9 = alloca i64, align 8
  %10 = alloca ptr, align 8
  %11 = alloca i64, align 8
  %12 = alloca i64, align 8
  store ptr %0, ptr %4, align 8, !tbaa !4
  store ptr %1, ptr %5, align 8, !tbaa !24
  store ptr %2, ptr %6, align 8, !tbaa !24
  call void @llvm.lifetime.start.p0(i64 8, ptr %7) #7
  store i64 0, ptr %7, align 8, !tbaa !11
  call void @llvm.lifetime.start.p0(i64 8, ptr %8) #7
  store i64 0, ptr %8, align 8, !tbaa !11
  call void @llvm.lifetime.start.p0(i64 8, ptr %9) #7
  br label %13

13:                                               ; preds = %92, %3
  %14 = load i64, ptr %8, align 8, !tbaa !11
  %15 = load ptr, ptr %4, align 8, !tbaa !4
  %16 = getelementptr inbounds nuw %struct.ewah_bitmap, ptr %15, i32 0, i32 1
  %17 = load i64, ptr %16, align 8, !tbaa !20
  %18 = icmp ult i64 %14, %17
  br i1 %18, label %19, label %93

19:                                               ; preds = %13
  call void @llvm.lifetime.start.p0(i64 8, ptr %10) #7
  %20 = load ptr, ptr %4, align 8, !tbaa !4
  %21 = getelementptr inbounds nuw %struct.ewah_bitmap, ptr %20, i32 0, i32 0
  %22 = load ptr, ptr %21, align 8, !tbaa !21
  %23 = load i64, ptr %8, align 8, !tbaa !11
  %24 = getelementptr inbounds nuw i64, ptr %22, i64 %23
  store ptr %24, ptr %10, align 8, !tbaa !19
  %25 = load ptr, ptr %10, align 8, !tbaa !19
  %26 = call i32 @rlw_get_run_bit(ptr noundef %25)
  %27 = icmp ne i32 %26, 0
  br i1 %27, label %28, label %46

28:                                               ; preds = %19
  call void @llvm.lifetime.start.p0(i64 8, ptr %11) #7
  %29 = load ptr, ptr %10, align 8, !tbaa !19
  %30 = call i64 @rlw_get_running_len(ptr noundef %29)
  %31 = mul i64 %30, 64
  store i64 %31, ptr %11, align 8, !tbaa !11
  store i64 0, ptr %9, align 8, !tbaa !11
  br label %32

32:                                               ; preds = %40, %28
  %33 = load i64, ptr %9, align 8, !tbaa !11
  %34 = load i64, ptr %11, align 8, !tbaa !11
  %35 = icmp ult i64 %33, %34
  br i1 %35, label %36, label %45

36:                                               ; preds = %32
  %37 = load ptr, ptr %5, align 8, !tbaa !24
  %38 = load i64, ptr %7, align 8, !tbaa !11
  %39 = load ptr, ptr %6, align 8, !tbaa !24
  call void %37(i64 noundef %38, ptr noundef %39)
  br label %40

40:                                               ; preds = %36
  %41 = load i64, ptr %9, align 8, !tbaa !11
  %42 = add i64 %41, 1
  store i64 %42, ptr %9, align 8, !tbaa !11
  %43 = load i64, ptr %7, align 8, !tbaa !11
  %44 = add i64 %43, 1
  store i64 %44, ptr %7, align 8, !tbaa !11
  br label %32, !llvm.loop !25

45:                                               ; preds = %32
  call void @llvm.lifetime.end.p0(i64 8, ptr %11) #7
  br label %52

46:                                               ; preds = %19
  %47 = load ptr, ptr %10, align 8, !tbaa !19
  %48 = call i64 @rlw_get_running_len(ptr noundef %47)
  %49 = mul i64 %48, 64
  %50 = load i64, ptr %7, align 8, !tbaa !11
  %51 = add i64 %50, %49
  store i64 %51, ptr %7, align 8, !tbaa !11
  br label %52

52:                                               ; preds = %46, %45
  %53 = load i64, ptr %8, align 8, !tbaa !11
  %54 = add i64 %53, 1
  store i64 %54, ptr %8, align 8, !tbaa !11
  store i64 0, ptr %9, align 8, !tbaa !11
  br label %55

55:                                               ; preds = %89, %52
  %56 = load i64, ptr %9, align 8, !tbaa !11
  %57 = load ptr, ptr %10, align 8, !tbaa !19
  %58 = call i64 @rlw_get_literal_words(ptr noundef %57)
  %59 = icmp ult i64 %56, %58
  br i1 %59, label %60, label %92

60:                                               ; preds = %55
  call void @llvm.lifetime.start.p0(i64 8, ptr %12) #7
  store i64 0, ptr %12, align 8, !tbaa !11
  br label %61

61:                                               ; preds = %81, %60
  %62 = load i64, ptr %12, align 8, !tbaa !11
  %63 = icmp ult i64 %62, 64
  br i1 %63, label %65, label %64

64:                                               ; preds = %61
  call void @llvm.lifetime.end.p0(i64 8, ptr %12) #7
  br label %86

65:                                               ; preds = %61
  %66 = load ptr, ptr %4, align 8, !tbaa !4
  %67 = getelementptr inbounds nuw %struct.ewah_bitmap, ptr %66, i32 0, i32 0
  %68 = load ptr, ptr %67, align 8, !tbaa !21
  %69 = load i64, ptr %8, align 8, !tbaa !11
  %70 = getelementptr inbounds nuw i64, ptr %68, i64 %69
  %71 = load i64, ptr %70, align 8, !tbaa !11
  %72 = load i64, ptr %12, align 8, !tbaa !11
  %73 = shl i64 1, %72
  %74 = and i64 %71, %73
  %75 = icmp ne i64 %74, 0
  br i1 %75, label %76, label %80

76:                                               ; preds = %65
  %77 = load ptr, ptr %5, align 8, !tbaa !24
  %78 = load i64, ptr %7, align 8, !tbaa !11
  %79 = load ptr, ptr %6, align 8, !tbaa !24
  call void %77(i64 noundef %78, ptr noundef %79)
  br label %80

80:                                               ; preds = %76, %65
  br label %81

81:                                               ; preds = %80
  %82 = load i64, ptr %12, align 8, !tbaa !11
  %83 = add i64 %82, 1
  store i64 %83, ptr %12, align 8, !tbaa !11
  %84 = load i64, ptr %7, align 8, !tbaa !11
  %85 = add i64 %84, 1
  store i64 %85, ptr %7, align 8, !tbaa !11
  br label %61, !llvm.loop !26

86:                                               ; preds = %64
  %87 = load i64, ptr %8, align 8, !tbaa !11
  %88 = add i64 %87, 1
  store i64 %88, ptr %8, align 8, !tbaa !11
  br label %89

89:                                               ; preds = %86
  %90 = load i64, ptr %9, align 8, !tbaa !11
  %91 = add i64 %90, 1
  store i64 %91, ptr %9, align 8, !tbaa !11
  br label %55, !llvm.loop !27

92:                                               ; preds = %55
  call void @llvm.lifetime.end.p0(i64 8, ptr %10) #7
  br label %13, !llvm.loop !28

93:                                               ; preds = %13
  call void @llvm.lifetime.end.p0(i64 8, ptr %9) #7
  call void @llvm.lifetime.end.p0(i64 8, ptr %8) #7
  call void @llvm.lifetime.end.p0(i64 8, ptr %7) #7
  ret void
}