; Function Attrs: nounwind uwtable
define dso_local void @ewah_each_bit(ptr noundef readonly captures(none) %0, ptr noundef readonly captures(none) %1, ptr noundef %2) local_unnamed_addr #0 {
  %4 = getelementptr inbounds nuw i8, ptr %0, i64 8
  %5 = load i64, ptr %4, align 8, !tbaa !13
  %.not52 = icmp eq i64 %5, 0
  br i1 %.not52, label %._crit_edge, label %.lr.ph51

.loopexit:                                        ; preds = %18, %.loopexit37
  %.3.lcssa = phi i64 [ %.2, %.loopexit37 ], [ %31, %18 ]
  %.130.lcssa = phi i64 [ %.13042, %.loopexit37 ], [ %.130, %18 ]
  %6 = load i64, ptr %4, align 8, !tbaa !13
  %7 = icmp ult i64 %.130.lcssa, %6
  br i1 %7, label %.lr.ph51, label %._crit_edge, !llvm.loop !19

.lr.ph51:                                         ; preds = %3, %.loopexit
  %.02850 = phi i64 [ %.3.lcssa, %.loopexit ], [ 0, %3 ]
  %.02949 = phi i64 [ %.130.lcssa, %.loopexit ], [ 0, %3 ]
  %8 = load ptr, ptr %0, align 8, !tbaa !14
  %9 = getelementptr inbounds nuw i64, ptr %8, i64 %.02949
  %.val = load i64, ptr %9, align 8, !tbaa !12
  %10 = and i64 %.val, 1
  %.not = icmp eq i64 %10, 0
  %11 = shl i64 %.val, 5
  %12 = and i64 %11, 274877906880
  br i1 %.not, label %16, label %13

13:                                               ; preds = %.lr.ph51
  %.not53 = icmp eq i64 %12, 0
  br i1 %.not53, label %.loopexit37, label %.lr.ph

.lr.ph:                                           ; preds = %13, %.lr.ph
  %.139 = phi i64 [ %15, %.lr.ph ], [ %.02850, %13 ]
  %.03138 = phi i64 [ %14, %.lr.ph ], [ 0, %13 ]
  tail call void %1(i64 noundef %.139, ptr noundef %2) #12
  %14 = add nuw nsw i64 %.03138, 1
  %15 = add i64 %.139, 1
  %exitcond.not = icmp eq i64 %14, %12
  br i1 %exitcond.not, label %.loopexit37.loopexit, label %.lr.ph, !llvm.loop !20

16:                                               ; preds = %.lr.ph51
  %17 = add i64 %12, %.02850
  br label %.loopexit37

.loopexit37.loopexit:                             ; preds = %.lr.ph
  %.val3643.pre = load i64, ptr %9, align 8, !tbaa !12
  br label %.loopexit37

.loopexit37:                                      ; preds = %.loopexit37.loopexit, %13, %16
  %.val3643 = phi i64 [ %.val, %16 ], [ %.val, %13 ], [ %.val3643.pre, %.loopexit37.loopexit ]
  %.2 = phi i64 [ %17, %16 ], [ %.02850, %13 ], [ %15, %.loopexit37.loopexit ]
  %.13042 = add i64 %.02949, 1
  %.not54 = icmp ult i64 %.val3643, 8589934592
  br i1 %.not54, label %.loopexit, label %.preheader

.preheader:                                       ; preds = %.loopexit37, %18
  %.13046 = phi i64 [ %.130, %18 ], [ %.13042, %.loopexit37 ]
  %.345 = phi i64 [ %31, %18 ], [ %.2, %.loopexit37 ]
  %.13244 = phi i64 [ %19, %18 ], [ 0, %.loopexit37 ]
  br label %22

18:                                               ; preds = %29
  %19 = add nuw nsw i64 %.13244, 1
  %.130 = add i64 %.13046, 1
  %.val36 = load i64, ptr %9, align 8, !tbaa !12
  %20 = lshr i64 %.val36, 33
  %21 = icmp samesign ult i64 %19, %20
  br i1 %21, label %.preheader, label %.loopexit, !llvm.loop !21

22:                                               ; preds = %.preheader, %29
  %.041 = phi i64 [ 0, %.preheader ], [ %30, %29 ]
  %.440 = phi i64 [ %.345, %.preheader ], [ %31, %29 ]
  %23 = load ptr, ptr %0, align 8, !tbaa !14
  %24 = getelementptr inbounds nuw i64, ptr %23, i64 %.13046
  %25 = load i64, ptr %24, align 8, !tbaa !12
  %26 = shl nuw i64 1, %.041
  %27 = and i64 %25, %26
  %.not33 = icmp eq i64 %27, 0
  br i1 %.not33, label %29, label %28

28:                                               ; preds = %22
  tail call void %1(i64 noundef %.440, ptr noundef %2) #12
  br label %29

29:                                               ; preds = %22, %28
  %30 = add nuw nsw i64 %.041, 1
  %31 = add i64 %.440, 1
  %exitcond57.not = icmp eq i64 %30, 64
  br i1 %exitcond57.not, label %18, label %22, !llvm.loop !22

._crit_edge:                                      ; preds = %.loopexit, %3
  ret void
}